; Function Attrs: nofree norecurse nosync nounwind memory(argmem: write) uwtable
define internal void @DC16NoTopLeft_C(ptr noundef writeonly captures(none) %0) #6 {
  br label %2

2:                                                ; preds = %2, %1
  %indvars.iv.i = phi i64 [ 0, %1 ], [ %indvars.iv.next.i, %2 ]
  %3 = shl nuw nsw i64 %indvars.iv.i, 5
  %4 = getelementptr inbounds nuw i8, ptr %0, i64 %3
  tail call void @llvm.memset.p0.i64(ptr noundef nonnull align 1 dereferenceable(16) %4, i8 -128, i64 16, i1 false)
  %indvars.iv.next.i = add nuw nsw i64 %indvars.iv.i, 1
  %exitcond.not.i = icmp eq i64 %indvars.iv.next.i, 16
  br i1 %exitcond.not.i, label %Put16.exit, label %2, !llvm.loop !31

Put16.exit:                                       ; preds = %2
  ret void
}